target datalayout = "e-m:e-p270:32:32-p271:32:32-p272:64:64-i64:64-i128:128-f80:128-n8:16:32:64-S128"
target triple = "x86_64-pc-linux-gnu"

%struct.RFile = type { %struct.RBasic, ptr }
%struct.RBasic = type { i64, i64 }
%struct.rb_io = type { i64, ptr, i32, i32, i32, i32, i64, ptr, %struct.rb_io_internal_buffer, %struct.rb_io_internal_buffer, i64, %struct.rb_io_encoding, ptr, %struct.rb_io_internal_buffer, ptr, i64, i32, i32, i64, i64, i64 }
%struct.rb_io_encoding = type { ptr, ptr, i32, i64 }
%struct.rb_io_internal_buffer = type <{ ptr, i32, i32, i32 }>
%struct.timeval = type { i64, i64 }

@__func__.rb_file_flock = private unnamed_addr constant [14 x i8] c"rb_file_flock\00", align 1

; Function Attrs: inlinehint nounwind sspstrong willreturn memory(none) uwtable
define internal zeroext i1 @RB_FIXNUM_P(i64 noundef %0) #10 {
  %2 = alloca i64, align 8
  store i64 %0, ptr %2, align 8, !tbaa !7
  %3 = load i64, ptr %2, align 8, !tbaa !7
  %4 = and i64 %3, 1
  %5 = icmp ne i64 %4, 0
  ret i1 %5
}

; Function Attrs: inlinehint nounwind sspstrong uwtable
define internal i32 @rb_num2int_inline(i64 noundef %0) #8 {
  %2 = alloca i64, align 8
  %3 = alloca i64, align 8
  store i64 %0, ptr %2, align 8, !tbaa !7
  call void @llvm.lifetime.start.p0(i64 8, ptr %3) #24
  %4 = load i64, ptr %2, align 8, !tbaa !7
  %5 = call zeroext i1 @RB_FIXNUM_P(i64 noundef %4) #27
  br i1 %5, label %6, label %9

6:                                                ; preds = %1
  %7 = load i64, ptr %2, align 8, !tbaa !7
  %8 = call i64 @rb_fix2int(i64 noundef %7)
  store i64 %8, ptr %3, align 8, !tbaa !7
  br label %12

9:                                                ; preds = %1
  %10 = load i64, ptr %2, align 8, !tbaa !7
  %11 = call i64 @rb_num2int(i64 noundef %10)
  store i64 %11, ptr %3, align 8, !tbaa !7
  br label %12

12:                                               ; preds = %9, %6
  %13 = load i64, ptr %3, align 8, !tbaa !7
  %14 = trunc i64 %13 to i32
  call void @llvm.lifetime.end.p0(i64 8, ptr %3) #24
  ret i32 %14
}

; Function Attrs: nounwind sspstrong uwtable
define internal i64 @rb_file_flock(i64 noundef %0, i64 noundef %1) #0 {
  %3 = alloca i64, align 8
  %4 = alloca i64, align 8
  %5 = alloca i64, align 8
  %6 = alloca ptr, align 8
  %7 = alloca [2 x i32], align 4
  %8 = alloca i32, align 4
  %9 = alloca %struct.timeval, align 8
  %10 = alloca i32, align 4
  %11 = alloca i32, align 4
  store i64 %0, ptr %4, align 8, !tbaa !7
  store i64 %1, ptr %5, align 8, !tbaa !7
  call void @llvm.lifetime.start.p0(i64 8, ptr %6) #24
  call void @llvm.lifetime.start.p0(i64 8, ptr %7) #24
  call void @llvm.lifetime.start.p0(i64 4, ptr %8) #24
  call void @llvm.lifetime.start.p0(i64 16, ptr %9) #24
  %12 = load i64, ptr %5, align 8, !tbaa !7
  %13 = call i32 @rb_num2int_inline(i64 noundef %12)
  store i32 %13, ptr %8, align 4, !tbaa !11
  %14 = getelementptr [2 x i32], ptr %7, i64 0, i64 1
  store i32 %13, ptr %14, align 4, !tbaa !11
  %15 = load i64, ptr %4, align 8, !tbaa !7
  %16 = call i64 @rb_io_taint_check(i64 noundef %15)
  %17 = inttoptr i64 %16 to ptr
  %18 = getelementptr inbounds nuw %struct.RFile, ptr %17, i32 0, i32 1
  %19 = load ptr, ptr %18, align 8, !tbaa !34
  store ptr %19, ptr %6, align 8, !tbaa !38
  call void @rb_io_check_closed(ptr noundef %19)
  %20 = load ptr, ptr %6, align 8, !tbaa !38
  %21 = getelementptr inbounds nuw %struct.rb_io, ptr %20, i32 0, i32 2
  %22 = load i32, ptr %21, align 8, !tbaa !59
  %23 = getelementptr [2 x i32], ptr %7, i64 0, i64 0
  store i32 %22, ptr %23, align 4, !tbaa !11
  %24 = load ptr, ptr %6, align 8, !tbaa !38
  %25 = getelementptr inbounds nuw %struct.rb_io, ptr %24, i32 0, i32 3
  %26 = load i32, ptr %25, align 4, !tbaa !53
  %27 = and i32 %26, 2
  %28 = icmp ne i32 %27, 0
  br i1 %28, label %29, label %32

29:                                               ; preds = %2
  %30 = load i64, ptr %4, align 8, !tbaa !7
  %31 = call i64 @rb_io_flush_raw(i64 noundef %30, i32 noundef 0)
  br label %32

32:                                               ; preds = %29, %2
  br label %33

33:                                               ; preds = %65, %63, %32
  %34 = load ptr, ptr %6, align 8, !tbaa !38
  %35 = getelementptr inbounds [2 x i32], ptr %7, i64 0, i64 0
  %36 = call i64 @rb_io_blocking_region(ptr noundef %34, ptr noundef @rb_thread_flock, ptr noundef %35)
  %37 = trunc i64 %36 to i32
  %38 = icmp slt i32 %37, 0
  br i1 %38, label %39, label %66

39:                                               ; preds = %33
  call void @llvm.lifetime.start.p0(i64 4, ptr %10) #24
  %40 = call ptr @rb_errno_ptr()
  %41 = load i32, ptr %40, align 4, !tbaa !11
  store i32 %41, ptr %10, align 4, !tbaa !11
  %42 = load i32, ptr %10, align 4, !tbaa !11
  switch i32 %42, label %57 [
    i32 11, label %43
    i32 13, label %43
    i32 4, label %56
    i32 85, label %56
  ]

43:                                               ; preds = %39, %39
  %44 = load i32, ptr %8, align 4, !tbaa !11
  %45 = and i32 %44, 4
  %46 = icmp ne i32 %45, 0
  br i1 %46, label %47, label %48

47:                                               ; preds = %43
  store i64 0, ptr %3, align 8
  store i32 1, ptr %11, align 4
  br label %63

48:                                               ; preds = %43
  %49 = getelementptr inbounds nuw %struct.timeval, ptr %9, i32 0, i32 0
  store i64 0, ptr %49, align 8, !tbaa !149
  %50 = getelementptr inbounds nuw %struct.timeval, ptr %9, i32 0, i32 1
  store i64 100000, ptr %50, align 8, !tbaa !151
  %51 = getelementptr inbounds nuw { i64, i64 }, ptr %9, i32 0, i32 0
  %52 = load i64, ptr %51, align 8
  %53 = getelementptr inbounds nuw { i64, i64 }, ptr %9, i32 0, i32 1
  %54 = load i64, ptr %53, align 8
  call void @rb_thread_wait_for(i64 %52, i64 %54)
  %55 = load ptr, ptr %6, align 8, !tbaa !38
  call void @rb_io_check_closed(ptr noundef %55)
  store i32 2, ptr %11, align 4
  br label %63, !llvm.loop !152

56:                                               ; preds = %39, %39
  br label %62

57:                                               ; preds = %39
  %58 = load i32, ptr %10, align 4, !tbaa !11
  %59 = load ptr, ptr %6, align 8, !tbaa !38
  %60 = getelementptr inbounds nuw %struct.rb_io, ptr %59, i32 0, i32 6
  %61 = load i64, ptr %60, align 8, !tbaa !60
  call void @rb_syserr_fail_path_in(ptr noundef @__func__.rb_file_flock, i32 noundef %58, i64 noundef %61) #28
  unreachable

62:                                               ; preds = %56
  store i32 0, ptr %11, align 4
  br label %63

63:                                               ; preds = %62, %48, %47
  call void @llvm.lifetime.end.p0(i64 4, ptr %10) #24
  %64 = load i32, ptr %11, align 4
  switch i32 %64, label %67 [
    i32 0, label %65
    i32 2, label %33
  ]

65:                                               ; preds = %63
  br label %33, !llvm.loop !152

66:                                               ; preds = %33
  store i64 1, ptr %3, align 8
  store i32 1, ptr %11, align 4
  br label %67

67:                                               ; preds = %66, %63
  call void @llvm.lifetime.end.p0(i64 16, ptr %9) #24
  call void @llvm.lifetime.end.p0(i64 4, ptr %8) #24
  call void @llvm.lifetime.end.p0(i64 8, ptr %7) #24
  call void @llvm.lifetime.end.p0(i64 8, ptr %6) #24
  %68 = load i64, ptr %3, align 8
  ret i64 %68
}