; Function Attrs: nounwind sspstrong uwtable
define internal range(i64 0, 2) i64 @rb_file_flock(i64 noundef %0, i64 noundef %1) #0 {
  %3 = alloca [2 x i32], align 4
  call void @llvm.lifetime.start.p0(i64 8, ptr nonnull %3) #22
  %4 = and i64 %1, 1
  %.not.i = icmp eq i64 %4, 0
  br i1 %.not.i, label %7, label %5

5:                                                ; preds = %2
  %6 = tail call i64 @rb_fix2int(i64 noundef %1) #22
  br label %rb_num2int_inline.exit

7:                                                ; preds = %2
  %8 = tail call i64 @rb_num2int(i64 noundef %1) #22
  br label %rb_num2int_inline.exit

rb_num2int_inline.exit:                           ; preds = %5, %7
  %.0.i = phi i64 [ %6, %5 ], [ %8, %7 ]
  %.0.i.fr = freeze i64 %.0.i
  %9 = trunc i64 %.0.i.fr to i32
  %10 = getelementptr inbounds nuw i8, ptr %3, i64 4
  store i32 %9, ptr %10, align 4, !tbaa !26
  %11 = tail call i64 @rb_io_taint_check(i64 noundef %0) #22
  %12 = inttoptr i64 %11 to ptr
  %13 = getelementptr inbounds nuw i8, ptr %12, i64 16
  %14 = load ptr, ptr %13, align 8, !tbaa !33
  tail call void @rb_io_check_closed(ptr noundef %14) #22
  %15 = getelementptr inbounds nuw i8, ptr %14, i64 16
  %16 = load i32, ptr %15, align 8, !tbaa !36
  store i32 %16, ptr %3, align 4, !tbaa !26
  %17 = getelementptr inbounds nuw i8, ptr %14, i64 20
  %18 = load i32, ptr %17, align 4, !tbaa !73
  %19 = and i32 %18, 2
  %.not = icmp eq i32 %19, 0
  br i1 %.not, label %22, label %20

20:                                               ; preds = %rb_num2int_inline.exit
  %21 = tail call i64 @rb_io_flush_raw(i64 noundef %0, i32 noundef 0) #22
  br label %22

22:                                               ; preds = %20, %rb_num2int_inline.exit
  %23 = call i64 @rb_io_blocking_region(ptr noundef nonnull %14, ptr noundef nonnull @rb_thread_flock, ptr noundef nonnull %3) #22
  %24 = and i64 %23, 2147483648
  %.not1316 = icmp eq i64 %24, 0
  br i1 %.not1316, label %.thread, label %.lr.ph

.lr.ph:                                           ; preds = %22
  %25 = and i32 %9, 4
  %.not14 = icmp eq i32 %25, 0
  br i1 %.not14, label %.lr.ph.split.us, label %.lr.ph.split

.lr.ph.split.us:                                  ; preds = %.lr.ph, %29
  %26 = call ptr @rb_errno_ptr() #22
  %27 = load i32, ptr %26, align 4, !tbaa !26
  switch i32 %27, label %.split.us [
    i32 11, label %28
    i32 13, label %28
    i32 4, label %29
    i32 85, label %29
  ]

28:                                               ; preds = %.lr.ph.split.us, %.lr.ph.split.us
  call void @rb_thread_wait_for(i64 0, i64 100000) #22
  call void @rb_io_check_closed(ptr noundef nonnull %14) #22
  br label %29, !llvm.loop !273

29:                                               ; preds = %28, %.lr.ph.split.us, %.lr.ph.split.us
  %30 = call i64 @rb_io_blocking_region(ptr noundef nonnull %14, ptr noundef nonnull @rb_thread_flock, ptr noundef nonnull %3) #22
  %31 = and i64 %30, 2147483648
  %.not13.us = icmp eq i64 %31, 0
  br i1 %.not13.us, label %.thread, label %.lr.ph.split.us

.lr.ph.split:                                     ; preds = %.lr.ph, %36
  %32 = call ptr @rb_errno_ptr() #22
  %33 = load i32, ptr %32, align 4, !tbaa !26
  switch i32 %33, label %.split.us [
    i32 11, label %.thread
    i32 13, label %.thread
    i32 4, label %36
    i32 85, label %36
  ]

.split.us:                                        ; preds = %.lr.ph.split, %.lr.ph.split.us
  %.us-phi = phi i32 [ %27, %.lr.ph.split.us ], [ %33, %.lr.ph.split ]
  %34 = getelementptr inbounds nuw i8, ptr %14, i64 32
  %35 = load i64, ptr %34, align 8, !tbaa !74
  call void @rb_syserr_fail_path_in(ptr noundef nonnull @__func__.rb_file_flock, i32 noundef %.us-phi, i64 noundef %35) #24
  unreachable

36:                                               ; preds = %.lr.ph.split, %.lr.ph.split
  %37 = call i64 @rb_io_blocking_region(ptr noundef nonnull %14, ptr noundef nonnull @rb_thread_flock, ptr noundef nonnull %3) #22
  %38 = and i64 %37, 2147483648
  %.not13 = icmp eq i64 %38, 0
  br i1 %.not13, label %.thread, label %.lr.ph.split

.thread:                                          ; preds = %36, %.lr.ph.split, %.lr.ph.split, %29, %22
  %.2 = phi i64 [ 1, %22 ], [ 1, %29 ], [ 0, %.lr.ph.split ], [ 0, %.lr.ph.split ], [ 1, %36 ]
  call void @llvm.lifetime.end.p0(i64 8, ptr nonnull %3) #22
  ret i64 %.2
}